; Function Attrs: mustprogress nofree norecurse nosync nounwind willreturn memory(read, inaccessiblemem: none) uwtable
define noundef zeroext i1 @_ZNK32pxrInternal_v0_24__pxrReserved__7GfVec2deqERKNS_7GfVec2hE(ptr nocapture noundef nonnull readonly align 8 dereferenceable(16) %0, ptr nocapture noundef nonnull readonly align 2 dereferenceable(4) %1) local_unnamed_addr #3 align 2 {
  %3 = load double, ptr %0, align 8
  %4 = load i16, ptr %1, align 2
  %5 = zext i16 %4 to i64
  %6 = getelementptr inbounds [65536 x %"union.pxrInternal_v0_24__pxrReserved__::pxr_half::half::uif"], ptr @_ZN32pxrInternal_v0_24__pxrReserved__8pxr_half4half8_toFloatE, i64 0, i64 %5
  %7 = load float, ptr %6, align 4
  %8 = fpext float %7 to double
  %9 = fcmp oeq double %3, %8
  br i1 %9, label %10, label %20

10:                                               ; preds = %2
  %11 = getelementptr inbounds i8, ptr %0, i64 8
  %12 = load double, ptr %11, align 8
  %13 = getelementptr inbounds i8, ptr %1, i64 2
  %14 = load i16, ptr %13, align 2
  %15 = zext i16 %14 to i64
  %16 = getelementptr inbounds [65536 x %"union.pxrInternal_v0_24__pxrReserved__::pxr_half::half::uif"], ptr @_ZN32pxrInternal_v0_24__pxrReserved__8pxr_half4half8_toFloatE, i64 0, i64 %15
  %17 = load float, ptr %16, align 4
  %18 = fpext float %17 to double
  %19 = fcmp oeq double %12, %18
  br label %20

20:                                               ; preds = %10, %2
  %21 = phi i1 [ false, %2 ], [ %19, %10 ]
  ret i1 %21
}